; Function Attrs: nounwind uwtable
define noalias noundef nonnull ptr @l_Lean_Meta_elimOptParam___lambda__1(ptr noundef %0, ptr readnone captures(none) %1, ptr readnone captures(none) %2, ptr noundef %3) local_unnamed_addr #0 {
  %5 = load ptr, ptr @l_Lean_Meta_elimOptParam___lambda__1___closed__2, align 8, !tbaa !4
  %6 = tail call zeroext i8 @l_Lean_Expr_isAppOfArity(ptr noundef %0, ptr noundef %5, ptr noundef nonnull inttoptr (i64 5 to ptr)) #5
  %7 = icmp eq i8 %6, 0
  br i1 %7, label %8, label %13

8:                                                ; preds = %4
  %9 = load ptr, ptr @l_Lean_Meta_elimOptParam___lambda__1___closed__3, align 8, !tbaa !4
  tail call void @lean_inc_heartbeat() #5
  %10 = tail call noalias ptr @mi_malloc_small(i64 noundef 24) #5
  %11 = icmp eq ptr %10, null
  br i1 %11, label %12, label %lean_alloc_ctor.exit

12:                                               ; preds = %8
  tail call void @lean_internal_panic_out_of_memory() #6
  unreachable

13:                                               ; preds = %4
  %14 = tail call ptr @l___private_Lean_Expr_0__Lean_Expr_getAppNumArgsAux(ptr noundef %0, ptr noundef nonnull inttoptr (i64 1 to ptr)) #5
  %15 = ptrtoint ptr %14 to i64
  %16 = and i64 %15, 1
  %.not = icmp eq i64 %16, 0
  br i1 %.not, label %17, label %lean_dec.exit29, !prof !14

17:                                               ; preds = %13
  %18 = tail call ptr @lean_nat_big_sub(ptr noundef %14, ptr noundef nonnull inttoptr (i64 1 to ptr)) #5
  %19 = load i32, ptr %14, align 4, !tbaa !8
  %20 = icmp sgt i32 %19, 1
  br i1 %20, label %21, label %23, !prof !11

21:                                               ; preds = %17
  %22 = add nsw i32 %19, -1
  store i32 %22, ptr %14, align 4, !tbaa !8
  br label %lean_dec.exit29

23:                                               ; preds = %17
  %.not.i = icmp eq i32 %19, 0
  br i1 %.not.i, label %lean_dec.exit29, label %24

24:                                               ; preds = %23
  tail call void @lean_dec_ref_cold(ptr noundef nonnull %14) #5
  br label %lean_dec.exit29

lean_dec.exit29:                                  ; preds = %13, %24, %23, %21
  %.1.i2735 = phi ptr [ %18, %21 ], [ %18, %23 ], [ %18, %24 ], [ %14, %13 ]
  %25 = ptrtoint ptr %.1.i2735 to i64
  %26 = and i64 %25, 1
  %.not38 = icmp eq i64 %26, 0
  br i1 %.not38, label %32, label %27, !prof !14

27:                                               ; preds = %lean_dec.exit29
  %28 = icmp ult ptr %.1.i2735, inttoptr (i64 2 to ptr)
  br i1 %28, label %lean_dec.exit, label %29

29:                                               ; preds = %27
  %30 = add i64 %25, -2
  %31 = inttoptr i64 %30 to ptr
  br label %lean_dec.exit

32:                                               ; preds = %lean_dec.exit29
  %33 = tail call ptr @lean_nat_big_sub(ptr noundef %.1.i2735, ptr noundef nonnull inttoptr (i64 3 to ptr)) #5
  %34 = load i32, ptr %.1.i2735, align 4, !tbaa !8
  %35 = icmp sgt i32 %34, 1
  br i1 %35, label %36, label %38, !prof !11

36:                                               ; preds = %32
  %37 = add nsw i32 %34, -1
  store i32 %37, ptr %.1.i2735, align 4, !tbaa !8
  br label %lean_dec.exit

38:                                               ; preds = %32
  %.not.i30 = icmp eq i32 %34, 0
  br i1 %.not.i30, label %lean_dec.exit, label %39

39:                                               ; preds = %38
  tail call void @lean_dec_ref_cold(ptr noundef nonnull %.1.i2735) #5
  br label %lean_dec.exit

lean_dec.exit:                                    ; preds = %29, %27, %39, %38, %36
  %.1.i37 = phi ptr [ %33, %36 ], [ %33, %38 ], [ %33, %39 ], [ inttoptr (i64 1 to ptr), %27 ], [ %31, %29 ]
  %40 = tail call ptr @l_Lean_Expr_getRevArg_x21(ptr noundef %0, ptr noundef %.1.i37) #5
  tail call void @lean_inc_heartbeat() #5
  %41 = tail call noalias ptr @mi_malloc_small(i64 noundef 16) #5
  %42 = icmp eq ptr %41, null
  br i1 %42, label %43, label %lean_alloc_ctor.exit32

43:                                               ; preds = %lean_dec.exit
  tail call void @lean_internal_panic_out_of_memory() #6
  unreachable

lean_alloc_ctor.exit32:                           ; preds = %lean_dec.exit
  %44 = getelementptr inbounds nuw i8, ptr %41, i64 4
  store i32 1, ptr %41, align 4, !tbaa !8
  store i32 16842768, ptr %44, align 4
  %45 = getelementptr inbounds nuw i8, ptr %41, i64 8
  store ptr %40, ptr %45, align 8, !tbaa !4
  tail call void @lean_inc_heartbeat() #5
  %46 = tail call noalias ptr @mi_malloc_small(i64 noundef 24) #5
  %47 = icmp eq ptr %46, null
  br i1 %47, label %48, label %lean_alloc_ctor.exit

48:                                               ; preds = %lean_alloc_ctor.exit32
  tail call void @lean_internal_panic_out_of_memory() #6
  unreachable

lean_alloc_ctor.exit:                             ; preds = %lean_alloc_ctor.exit32, %8
  %.sink44 = phi ptr [ %10, %8 ], [ %46, %lean_alloc_ctor.exit32 ]
  %.sink = phi ptr [ %9, %8 ], [ %41, %lean_alloc_ctor.exit32 ]
  %49 = getelementptr inbounds nuw i8, ptr %.sink44, i64 4
  store i32 1, ptr %.sink44, align 4, !tbaa !8
  store i32 131096, ptr %49, align 4
  %50 = getelementptr inbounds nuw i8, ptr %.sink44, i64 8
  store ptr %.sink, ptr %50, align 8, !tbaa !4
  %51 = getelementptr inbounds nuw i8, ptr %.sink44, i64 16
  store ptr %3, ptr %51, align 8, !tbaa !4
  ret ptr %.sink44
}